target datalayout = "e-m:e-p270:32:32-p271:32:32-p272:64:64-i64:64-i128:128-f80:128-n8:16:32:64-S128"
target triple = "x86_64-pc-linux-gnu"

%struct.grpc_arg = type { i32, ptr, %"union.(anonymous struct)::grpc_arg_value" }
%"union.(anonymous struct)::grpc_arg_value" = type { %"struct.(anonymous struct)::grpc_arg_value::grpc_arg_pointer" }
%"struct.(anonymous struct)::grpc_arg_value::grpc_arg_pointer" = type { ptr, ptr }
%struct.grpc_channel_args = type { i64, ptr }
%struct.grpc_integer_options = type { i32, i32, i32 }

; Function Attrs: mustprogress nounwind uwtable
define noundef ptr @_Z22grpc_channel_args_findPK17grpc_channel_argsPKc(ptr noundef %0, ptr noundef %1) #6 {
  %3 = alloca ptr, align 8
  %4 = alloca ptr, align 8
  %5 = alloca ptr, align 8
  %6 = alloca i64, align 8
  %7 = alloca i32, align 4
  store ptr %0, ptr %4, align 8, !tbaa !3
  store ptr %1, ptr %5, align 8, !tbaa !25
  %8 = load ptr, ptr %4, align 8, !tbaa !3
  %9 = icmp ne ptr %8, null
  br i1 %9, label %10, label %42

10:                                               ; preds = %2
  call void @llvm.lifetime.start.p0(i64 8, ptr %6) #3
  store i64 0, ptr %6, align 8, !tbaa !23
  br label %11

11:                                               ; preds = %36, %10
  %12 = load i64, ptr %6, align 8, !tbaa !23
  %13 = load ptr, ptr %4, align 8, !tbaa !3
  %14 = getelementptr inbounds nuw %struct.grpc_channel_args, ptr %13, i32 0, i32 0
  %15 = load i64, ptr %14, align 8, !tbaa !48
  %16 = icmp ult i64 %12, %15
  br i1 %16, label %18, label %17

17:                                               ; preds = %11
  store i32 2, ptr %7, align 4
  br label %39

18:                                               ; preds = %11
  %19 = load ptr, ptr %4, align 8, !tbaa !3
  %20 = getelementptr inbounds nuw %struct.grpc_channel_args, ptr %19, i32 0, i32 1
  %21 = load ptr, ptr %20, align 8, !tbaa !50
  %22 = load i64, ptr %6, align 8, !tbaa !23
  %23 = getelementptr inbounds nuw %struct.grpc_arg, ptr %21, i64 %22
  %24 = getelementptr inbounds nuw %struct.grpc_arg, ptr %23, i32 0, i32 1
  %25 = load ptr, ptr %24, align 8, !tbaa !45
  %26 = load ptr, ptr %5, align 8, !tbaa !25
  %27 = call i32 @strcmp(ptr noundef %25, ptr noundef %26) #26
  %28 = icmp eq i32 %27, 0
  br i1 %28, label %29, label %35

29:                                               ; preds = %18
  %30 = load ptr, ptr %4, align 8, !tbaa !3
  %31 = getelementptr inbounds nuw %struct.grpc_channel_args, ptr %30, i32 0, i32 1
  %32 = load ptr, ptr %31, align 8, !tbaa !50
  %33 = load i64, ptr %6, align 8, !tbaa !23
  %34 = getelementptr inbounds nuw %struct.grpc_arg, ptr %32, i64 %33
  store ptr %34, ptr %3, align 8
  store i32 1, ptr %7, align 4
  br label %39

35:                                               ; preds = %18
  br label %36

36:                                               ; preds = %35
  %37 = load i64, ptr %6, align 8, !tbaa !23
  %38 = add i64 %37, 1
  store i64 %38, ptr %6, align 8, !tbaa !23
  br label %11, !llvm.loop !136

39:                                               ; preds = %29, %17
  call void @llvm.lifetime.end.p0(i64 8, ptr %6) #3
  %40 = load i32, ptr %7, align 4
  switch i32 %40, label %45 [
    i32 2, label %41
    i32 1, label %43
  ]

41:                                               ; preds = %39
  br label %42

42:                                               ; preds = %41, %2
  store ptr null, ptr %3, align 8
  br label %43

43:                                               ; preds = %42, %39
  %44 = load ptr, ptr %3, align 8
  ret ptr %44

45:                                               ; preds = %39
  unreachable
}

; Function Attrs: mustprogress uwtable
define noundef i32 @_Z30grpc_channel_args_find_integerPK17grpc_channel_argsPKc20grpc_integer_options(ptr noundef %0, ptr noundef %1, i64 %2, i32 %3) #5 {
  %5 = alloca %struct.grpc_integer_options, align 4
  %6 = alloca { i64, i32 }, align 4
  %7 = alloca ptr, align 8
  %8 = alloca ptr, align 8
  %9 = alloca ptr, align 8
  %10 = alloca %struct.grpc_integer_options, align 4
  %11 = alloca { i64, i32 }, align 4
  %12 = getelementptr inbounds nuw { i64, i32 }, ptr %6, i32 0, i32 0
  store i64 %2, ptr %12, align 4
  %13 = getelementptr inbounds nuw { i64, i32 }, ptr %6, i32 0, i32 1
  store i32 %3, ptr %13, align 4
  call void @llvm.memcpy.p0.p0.i64(ptr align 4 %5, ptr align 4 %6, i64 12, i1 false)
  store ptr %0, ptr %7, align 8, !tbaa !3
  store ptr %1, ptr %8, align 8, !tbaa !25
  call void @llvm.lifetime.start.p0(i64 8, ptr %9) #3
  %14 = load ptr, ptr %7, align 8, !tbaa !3
  %15 = load ptr, ptr %8, align 8, !tbaa !25
  %16 = call noundef ptr @_Z22grpc_channel_args_findPK17grpc_channel_argsPKc(ptr noundef %14, ptr noundef %15)
  store ptr %16, ptr %9, align 8, !tbaa !3
  %17 = load ptr, ptr %9, align 8, !tbaa !3
  call void @llvm.memcpy.p0.p0.i64(ptr align 4 %10, ptr align 4 %5, i64 12, i1 false), !tbaa.struct !147
  call void @llvm.memcpy.p0.p0.i64(ptr align 4 %11, ptr align 4 %10, i64 12, i1 false)
  %18 = getelementptr inbounds nuw { i64, i32 }, ptr %11, i32 0, i32 0
  %19 = load i64, ptr %18, align 4
  %20 = getelementptr inbounds nuw { i64, i32 }, ptr %11, i32 0, i32 1
  %21 = load i32, ptr %20, align 4
  %22 = call noundef i32 @_Z28grpc_channel_arg_get_integerPK8grpc_arg20grpc_integer_options(ptr noundef %17, i64 %19, i32 %21)
  call void @llvm.lifetime.end.p0(i64 8, ptr %9) #3
  ret i32 %22
}