; Function Attrs: mustprogress uwtable
define noundef i32 @_Z30grpc_channel_args_find_integerPK17grpc_channel_argsPKc20grpc_integer_options(ptr noundef readonly %0, ptr noundef readonly captures(none) %1, i64 %2, i32 %3) local_unnamed_addr #9 {
  %.not.i = icmp eq ptr %0, null
  br i1 %.not.i, label %_Z22grpc_channel_args_findPK17grpc_channel_argsPKc.exit, label %.preheader.i

.preheader.i:                                     ; preds = %4
  %5 = load i64, ptr %0, align 8, !tbaa !51
  %.not20.i = icmp eq i64 %5, 0
  br i1 %.not20.i, label %_Z22grpc_channel_args_findPK17grpc_channel_argsPKc.exit, label %.lr.ph.i

.lr.ph.i:                                         ; preds = %.preheader.i
  %6 = getelementptr inbounds nuw i8, ptr %0, i64 8
  %7 = load ptr, ptr %6, align 8, !tbaa !53
  br label %10

8:                                                ; preds = %10
  %9 = add nuw i64 %.01017.i, 1
  %exitcond.not.i = icmp eq i64 %9, %5
  br i1 %exitcond.not.i, label %_Z22grpc_channel_args_findPK17grpc_channel_argsPKc.exit, label %10, !llvm.loop !179

10:                                               ; preds = %8, %.lr.ph.i
  %.01017.i = phi i64 [ 0, %.lr.ph.i ], [ %9, %8 ]
  %11 = getelementptr inbounds nuw %struct.grpc_arg, ptr %7, i64 %.01017.i
  %12 = getelementptr inbounds nuw i8, ptr %11, i64 8
  %13 = load ptr, ptr %12, align 8, !tbaa !40
  %14 = tail call i32 @strcmp(ptr noundef nonnull dereferenceable(1) %13, ptr noundef nonnull readonly dereferenceable(1) %1) #44
  %15 = icmp eq i32 %14, 0
  br i1 %15, label %_Z22grpc_channel_args_findPK17grpc_channel_argsPKc.exit, label %8

_Z22grpc_channel_args_findPK17grpc_channel_argsPKc.exit: ; preds = %8, %10, %4, %.preheader.i
  %.1.i = phi ptr [ null, %4 ], [ null, %.preheader.i ], [ %11, %10 ], [ null, %8 ]
  %16 = tail call noundef i32 @_Z28grpc_channel_arg_get_integerPK8grpc_arg20grpc_integer_options(ptr noundef %.1.i, i64 %2, i32 %3)
  ret i32 %16
}